; Function Attrs: mustprogress nofree nounwind willreturn memory(write, argmem: readwrite) uwtable
define dso_local noundef zeroext i1 @_ZN30btGeneric6DofSpring2Constraint16matrixToEulerZXYERK11btMatrix3x3R9btVector3(ptr nocapture noundef nonnull readonly align 4 dereferenceable(48) %mat, ptr nocapture noundef nonnull writeonly align 4 dereferenceable(16) %xyz) local_unnamed_addr #6 align 2 {
entry:
  %arrayidx.i.i = getelementptr inbounds i8, ptr %mat, i64 16
  %arrayidx.i = getelementptr inbounds i8, ptr %mat, i64 24
  %0 = load float, ptr %arrayidx.i, align 4
  %cmp = fcmp olt float %0, 1.000000e+00
  br i1 %cmp, label %if.then, label %if.else27

if.then:                                          ; preds = %entry
  %cmp1 = fcmp ogt float %0, -1.000000e+00
  br i1 %cmp1, label %if.then2, label %if.else

if.then2:                                         ; preds = %if.then
  %cmp.i = fcmp olt float %0, -1.000000e+00
  %x.addr.0.i = select i1 %cmp.i, float -1.000000e+00, float %0
  %cmp1.i = fcmp ogt float %x.addr.0.i, 1.000000e+00
  %x.addr.1.i = select i1 %cmp1.i, float 1.000000e+00, float %x.addr.0.i
  %call.i = tail call noundef float @asinf(float noundef %x.addr.1.i) #22
  store float %call.i, ptr %xyz, align 4
  %arrayidx.i21 = getelementptr inbounds i8, ptr %mat, i64 8
  %1 = load float, ptr %arrayidx.i21, align 4
  %fneg = fneg float %1
  %arrayidx.i23 = getelementptr inbounds i8, ptr %mat, i64 40
  %2 = load float, ptr %arrayidx.i23, align 4
  %call.i24 = tail call noundef float @atan2f(float noundef %fneg, float noundef %2) #22
  %arrayidx10 = getelementptr inbounds i8, ptr %xyz, i64 4
  store float %call.i24, ptr %arrayidx10, align 4
  %3 = load float, ptr %arrayidx.i.i, align 4
  %fneg12 = fneg float %3
  %arrayidx.i27 = getelementptr inbounds i8, ptr %mat, i64 20
  %4 = load float, ptr %arrayidx.i27, align 4
  %call.i28 = tail call noundef float @atan2f(float noundef %fneg12, float noundef %4) #22
  br label %return

if.else:                                          ; preds = %if.then
  store <2 x float> <float 0xBFF921FB60000000, float 0.000000e+00>, ptr %xyz, align 4
  %arrayidx.i.i29 = getelementptr inbounds i8, ptr %mat, i64 32
  %5 = load float, ptr %arrayidx.i.i29, align 4
  %6 = load float, ptr %mat, align 4
  %call.i30 = tail call noundef float @atan2f(float noundef %5, float noundef %6) #22
  %fneg24 = fneg float %call.i30
  br label %return

if.else27:                                        ; preds = %entry
  store <2 x float> <float 0x3FF921FB60000000, float 0.000000e+00>, ptr %xyz, align 4
  %arrayidx.i.i31 = getelementptr inbounds i8, ptr %mat, i64 32
  %7 = load float, ptr %arrayidx.i.i31, align 4
  %8 = load float, ptr %mat, align 4
  %call.i32 = tail call noundef float @atan2f(float noundef %7, float noundef %8) #22
  br label %return

return:                                           ; preds = %if.else27, %if.else, %if.then2
  %call.i32.sink = phi float [ %call.i32, %if.else27 ], [ %fneg24, %if.else ], [ %call.i28, %if.then2 ]
  %retval.0 = phi i1 [ false, %if.else27 ], [ false, %if.else ], [ true, %if.then2 ]
  %arrayidx36 = getelementptr inbounds i8, ptr %xyz, i64 8
  store float %call.i32.sink, ptr %arrayidx36, align 4
  ret i1 %retval.0
}